target datalayout = "e-m:e-p270:32:32-p271:32:32-p272:64:64-i64:64-i128:128-f80:128-n8:16:32:64-S128"
target triple = "x86_64-pc-linux-gnu"

%struct.mbedtls_chachapoly_context = type { %struct.mbedtls_chacha20_context, %struct.mbedtls_poly1305_context, i64, i64, i32, i32 }
%struct.mbedtls_chacha20_context = type { [16 x i32], [64 x i8], i64 }
%struct.mbedtls_poly1305_context = type { [4 x i32], [4 x i32], [5 x i32], [16 x i8], i64 }

; Function Attrs: nounwind uwtable
define hidden i32 @mbedtls_chachapoly_update_aad(ptr noundef %0, ptr noundef %1, i64 noundef %2) #0 {
  %4 = alloca i32, align 4
  %5 = alloca ptr, align 8
  %6 = alloca ptr, align 8
  %7 = alloca i64, align 8
  store ptr %0, ptr %5, align 8, !tbaa !3
  store ptr %1, ptr %6, align 8, !tbaa !17
  store i64 %2, ptr %7, align 8, !tbaa !20
  %8 = load ptr, ptr %5, align 8, !tbaa !3
  %9 = getelementptr inbounds nuw %struct.mbedtls_chachapoly_context, ptr %8, i32 0, i32 4
  %10 = load i32, ptr %9, align 8, !tbaa !15
  %11 = icmp ne i32 %10, 1
  br i1 %11, label %12, label %13

12:                                               ; preds = %3
  store i32 -84, ptr %4, align 4
  br label %24

13:                                               ; preds = %3
  %14 = load i64, ptr %7, align 8, !tbaa !20
  %15 = load ptr, ptr %5, align 8, !tbaa !3
  %16 = getelementptr inbounds nuw %struct.mbedtls_chachapoly_context, ptr %15, i32 0, i32 2
  %17 = load i64, ptr %16, align 8, !tbaa !8
  %18 = add i64 %17, %14
  store i64 %18, ptr %16, align 8, !tbaa !8
  %19 = load ptr, ptr %5, align 8, !tbaa !3
  %20 = getelementptr inbounds nuw %struct.mbedtls_chachapoly_context, ptr %19, i32 0, i32 1
  %21 = load ptr, ptr %6, align 8, !tbaa !17
  %22 = load i64, ptr %7, align 8, !tbaa !20
  %23 = call i32 @mbedtls_poly1305_update(ptr noundef %20, ptr noundef %21, i64 noundef %22)
  store i32 %23, ptr %4, align 4
  br label %24

24:                                               ; preds = %13, %12
  %25 = load i32, ptr %4, align 4
  ret i32 %25
}