; Function Attrs: nounwind uwtable
define hidden i32 @mbedtls_chachapoly_update_aad(ptr noundef %0, ptr noundef %1, i64 noundef %2) local_unnamed_addr #0 {
  %4 = getelementptr inbounds nuw i8, ptr %0, i64 232
  %5 = load i32, ptr %4, align 8, !tbaa !3
  %.not = icmp eq i32 %5, 1
  br i1 %.not, label %6, label %12

6:                                                ; preds = %3
  %7 = getelementptr inbounds nuw i8, ptr %0, i64 216
  %8 = load i64, ptr %7, align 8, !tbaa !12
  %9 = add i64 %8, %2
  store i64 %9, ptr %7, align 8, !tbaa !12
  %10 = getelementptr inbounds nuw i8, ptr %0, i64 136
  %11 = tail call i32 @mbedtls_poly1305_update(ptr noundef nonnull %10, ptr noundef %1, i64 noundef %2) #7
  br label %12

12:                                               ; preds = %3, %6
  %.0 = phi i32 [ %11, %6 ], [ -84, %3 ]
  ret i32 %.0
}